target datalayout = "e-m:e-p270:32:32-p271:32:32-p272:64:64-i64:64-i128:128-f80:128-n8:16:32:64-S128"
target triple = "x86_64-pc-linux-gnu"

; Function Attrs: nounwind uwtable
define internal i32 @freePathPair(ptr noundef %0, ptr noundef %1, ptr noundef %2) #0 {
  %4 = alloca ptr, align 8
  %5 = alloca ptr, align 8
  %6 = alloca ptr, align 8
  %7 = alloca ptr, align 8
  store ptr %0, ptr %4, align 8, !tbaa !51
  store ptr %1, ptr %5, align 8, !tbaa !51
  store ptr %2, ptr %6, align 8, !tbaa !51
  call void @llvm.lifetime.start.p0(i64 8, ptr %7) #6
  %8 = load ptr, ptr %5, align 8, !tbaa !51
  store ptr %8, ptr %7, align 8, !tbaa !39
  %9 = load ptr, ptr %7, align 8, !tbaa !39
  %10 = icmp ne ptr %9, null
  br i1 %10, label %11, label %13

11:                                               ; preds = %3
  %12 = load ptr, ptr %7, align 8, !tbaa !39
  call void @free(ptr noundef %12) #6
  store ptr null, ptr %7, align 8, !tbaa !39
  br label %14

13:                                               ; preds = %3
  br label %14

14:                                               ; preds = %13, %11
  call void @llvm.lifetime.end.p0(i64 8, ptr %7) #6
  ret i32 0
}